target datalayout = "e-m:e-p270:32:32-p271:32:32-p272:64:64-i64:64-i128:128-f80:128-n8:16:32:64-S128"
target triple = "x86_64-pc-linux-gnu"

%struct.hwloc_obj = type { i32, ptr, i32, ptr, i64, ptr, i32, i32, ptr, ptr, ptr, i32, ptr, ptr, i32, ptr, ptr, ptr, i32, i32, ptr, i32, ptr, i32, ptr, ptr, ptr, ptr, ptr, %struct.hwloc_infos_s, ptr, i64 }
%struct.hwloc_infos_s = type { ptr, i32, i32 }
%struct.hwloc_calc_level = type { i32, i32, %union.hwloc_obj_attr_u, [32 x i8], i32, i32, i32, i32 }
%union.hwloc_obj_attr_u = type { %struct.hwloc_numanode_attr_s, [24 x i8] }
%struct.hwloc_numanode_attr_s = type { i64, i32, ptr }
%struct.hwloc_osdev_attr_s = type { i64 }
%struct.hwloc_pcidev_attr_s = type { i32, i8, i8, i8, i8, i16, i16, i16, i16, i16, i8, float }
%struct.hwloc_info_s = type { ptr, ptr }

@.str.164 = private unnamed_addr constant [7 x i8] c"MCDRAM\00", align 1
@.str.181 = private unnamed_addr constant [11 x i8] c"MemoryTier\00", align 1

; Function Attrs: inlinehint nounwind willreturn memory(read) uwtable
define internal ptr @hwloc_get_info_by_name(ptr noundef %0, ptr noundef %1) #7 {
  %3 = alloca ptr, align 8
  %4 = alloca ptr, align 8
  %5 = alloca ptr, align 8
  %6 = alloca i32, align 4
  %7 = alloca ptr, align 8
  %8 = alloca i32, align 4
  store ptr %0, ptr %4, align 8, !tbaa !108
  store ptr %1, ptr %5, align 8, !tbaa !4
  call void @llvm.lifetime.start.p0(i64 4, ptr %6) #11
  store i32 0, ptr %6, align 4, !tbaa !11
  br label %9

9:                                                ; preds = %36, %2
  %10 = load i32, ptr %6, align 4, !tbaa !11
  %11 = load ptr, ptr %4, align 8, !tbaa !108
  %12 = getelementptr inbounds nuw %struct.hwloc_infos_s, ptr %11, i32 0, i32 1
  %13 = load i32, ptr %12, align 8, !tbaa !110
  %14 = icmp ult i32 %10, %13
  br i1 %14, label %15, label %39

15:                                               ; preds = %9
  call void @llvm.lifetime.start.p0(i64 8, ptr %7) #11
  %16 = load ptr, ptr %4, align 8, !tbaa !108
  %17 = getelementptr inbounds nuw %struct.hwloc_infos_s, ptr %16, i32 0, i32 0
  %18 = load ptr, ptr %17, align 8, !tbaa !111
  %19 = load i32, ptr %6, align 4, !tbaa !11
  %20 = zext i32 %19 to i64
  %21 = getelementptr inbounds nuw %struct.hwloc_info_s, ptr %18, i64 %20
  store ptr %21, ptr %7, align 8, !tbaa !112
  %22 = load ptr, ptr %7, align 8, !tbaa !112
  %23 = getelementptr inbounds nuw %struct.hwloc_info_s, ptr %22, i32 0, i32 0
  %24 = load ptr, ptr %23, align 8, !tbaa !113
  %25 = load ptr, ptr %5, align 8, !tbaa !4
  %26 = call i32 @strcmp(ptr noundef %24, ptr noundef %25) #12
  %27 = icmp ne i32 %26, 0
  br i1 %27, label %32, label %28

28:                                               ; preds = %15
  %29 = load ptr, ptr %7, align 8, !tbaa !112
  %30 = getelementptr inbounds nuw %struct.hwloc_info_s, ptr %29, i32 0, i32 1
  %31 = load ptr, ptr %30, align 8, !tbaa !115
  store ptr %31, ptr %3, align 8
  store i32 1, ptr %8, align 4
  br label %33

32:                                               ; preds = %15
  store i32 0, ptr %8, align 4
  br label %33

33:                                               ; preds = %32, %28
  call void @llvm.lifetime.end.p0(i64 8, ptr %7) #11
  %34 = load i32, ptr %8, align 4
  switch i32 %34, label %40 [
    i32 0, label %35
  ]

35:                                               ; preds = %33
  br label %36

36:                                               ; preds = %35
  %37 = load i32, ptr %6, align 4, !tbaa !11
  %38 = add i32 %37, 1
  store i32 %38, ptr %6, align 4, !tbaa !11
  br label %9, !llvm.loop !116

39:                                               ; preds = %9
  store ptr null, ptr %3, align 8
  store i32 1, ptr %8, align 4
  br label %40

40:                                               ; preds = %39, %33
  call void @llvm.lifetime.end.p0(i64 4, ptr %6) #11
  %41 = load ptr, ptr %3, align 8
  ret ptr %41
}

; Function Attrs: inlinehint nounwind willreturn memory(read) uwtable
define available_externally i32 @atoi(ptr noundef nonnull %0) #7 {
  %2 = alloca ptr, align 8
  store ptr %0, ptr %2, align 8, !tbaa !4
  %3 = load ptr, ptr %2, align 8, !tbaa !4
  %4 = call i64 @strtol(ptr noundef %3, ptr noundef null, i32 noundef 10) #11
  %5 = trunc i64 %4 to i32
  ret i32 %5
}

; Function Attrs: inlinehint nounwind willreturn memory(read) uwtable
define internal ptr @hwloc_obj_get_info_by_name(ptr noundef %0, ptr noundef %1) #7 {
  %3 = alloca ptr, align 8
  %4 = alloca ptr, align 8
  store ptr %0, ptr %3, align 8, !tbaa !40
  store ptr %1, ptr %4, align 8, !tbaa !4
  %5 = load ptr, ptr %3, align 8, !tbaa !40
  %6 = getelementptr inbounds nuw %struct.hwloc_obj, ptr %5, i32 0, i32 29
  %7 = load ptr, ptr %4, align 8, !tbaa !4
  %8 = call ptr @hwloc_get_info_by_name(ptr noundef %6, ptr noundef %7) #12
  ret ptr %8
}

; Function Attrs: inlinehint nounwind uwtable
define internal i32 @hwloc_calc_check_object_filtered(ptr noundef %0, ptr noundef %1) #2 {
  %3 = alloca i32, align 4
  %4 = alloca ptr, align 8
  %5 = alloca ptr, align 8
  %6 = alloca ptr, align 8
  %7 = alloca i32, align 4
  %8 = alloca i32, align 4
  store ptr %0, ptr %4, align 8, !tbaa !40
  store ptr %1, ptr %5, align 8, !tbaa !94
  %9 = load ptr, ptr %5, align 8, !tbaa !94
  %10 = getelementptr inbounds nuw %struct.hwloc_calc_level, ptr %9, i32 0, i32 3
  %11 = getelementptr inbounds [32 x i8], ptr %10, i64 0, i64 0
  %12 = load i8, ptr %11, align 8, !tbaa !23
  %13 = icmp ne i8 %12, 0
  br i1 %13, label %14, label %30

14:                                               ; preds = %2
  %15 = load ptr, ptr %4, align 8, !tbaa !40
  %16 = getelementptr inbounds nuw %struct.hwloc_obj, ptr %15, i32 0, i32 1
  %17 = load ptr, ptr %16, align 8, !tbaa !106
  %18 = icmp ne ptr %17, null
  br i1 %18, label %19, label %28

19:                                               ; preds = %14
  %20 = load ptr, ptr %5, align 8, !tbaa !94
  %21 = getelementptr inbounds nuw %struct.hwloc_calc_level, ptr %20, i32 0, i32 3
  %22 = getelementptr inbounds [32 x i8], ptr %21, i64 0, i64 0
  %23 = load ptr, ptr %4, align 8, !tbaa !40
  %24 = getelementptr inbounds nuw %struct.hwloc_obj, ptr %23, i32 0, i32 1
  %25 = load ptr, ptr %24, align 8, !tbaa !106
  %26 = call i32 @strcasecmp(ptr noundef %22, ptr noundef %25) #12
  %27 = icmp ne i32 %26, 0
  br i1 %27, label %28, label %29

28:                                               ; preds = %19, %14
  store i32 1, ptr %3, align 4
  br label %156

29:                                               ; preds = %19
  br label %30

30:                                               ; preds = %29, %2
  %31 = load ptr, ptr %5, align 8, !tbaa !94
  %32 = getelementptr inbounds nuw %struct.hwloc_calc_level, ptr %31, i32 0, i32 1
  %33 = load i32, ptr %32, align 4, !tbaa !82
  %34 = icmp eq i32 %33, 14
  br i1 %34, label %35, label %88

35:                                               ; preds = %30
  %36 = load ptr, ptr %5, align 8, !tbaa !94
  %37 = getelementptr inbounds nuw %struct.hwloc_calc_level, ptr %36, i32 0, i32 4
  %38 = load i32, ptr %37, align 8, !tbaa !96
  %39 = icmp sge i32 %38, 0
  br i1 %39, label %40, label %57

40:                                               ; preds = %35
  call void @llvm.lifetime.start.p0(i64 8, ptr %6) #11
  %41 = load ptr, ptr %4, align 8, !tbaa !40
  %42 = call ptr @hwloc_obj_get_info_by_name(ptr noundef %41, ptr noundef @.str.181) #12
  store ptr %42, ptr %6, align 8, !tbaa !4
  %43 = load ptr, ptr %6, align 8, !tbaa !4
  %44 = icmp ne ptr %43, null
  br i1 %44, label %45, label %52

45:                                               ; preds = %40
  %46 = load ptr, ptr %6, align 8, !tbaa !4
  %47 = call i32 @atoi(ptr noundef %46) #12
  %48 = load ptr, ptr %5, align 8, !tbaa !94
  %49 = getelementptr inbounds nuw %struct.hwloc_calc_level, ptr %48, i32 0, i32 4
  %50 = load i32, ptr %49, align 8, !tbaa !96
  %51 = icmp ne i32 %47, %50
  br i1 %51, label %52, label %53

52:                                               ; preds = %45, %40
  store i32 1, ptr %3, align 4
  store i32 1, ptr %7, align 4
  br label %54

53:                                               ; preds = %45
  store i32 0, ptr %7, align 4
  br label %54

54:                                               ; preds = %53, %52
  call void @llvm.lifetime.end.p0(i64 8, ptr %6) #11
  %55 = load i32, ptr %7, align 4
  switch i32 %55, label %158 [
    i32 0, label %56
    i32 1, label %156
  ]

56:                                               ; preds = %54
  br label %57

57:                                               ; preds = %56, %35
  %58 = load ptr, ptr %5, align 8, !tbaa !94
  %59 = getelementptr inbounds nuw %struct.hwloc_calc_level, ptr %58, i32 0, i32 7
  %60 = load i32, ptr %59, align 4, !tbaa !99
  %61 = icmp sge i32 %60, 0
  br i1 %61, label %62, label %87

62:                                               ; preds = %57
  call void @llvm.lifetime.start.p0(i64 4, ptr %8) #11
  %63 = load ptr, ptr %4, align 8, !tbaa !40
  %64 = getelementptr inbounds nuw %struct.hwloc_obj, ptr %63, i32 0, i32 1
  %65 = load ptr, ptr %64, align 8, !tbaa !106
  %66 = icmp ne ptr %65, null
  br i1 %66, label %67, label %74

67:                                               ; preds = %62
  %68 = load ptr, ptr %4, align 8, !tbaa !40
  %69 = getelementptr inbounds nuw %struct.hwloc_obj, ptr %68, i32 0, i32 1
  %70 = load ptr, ptr %69, align 8, !tbaa !106
  %71 = call i32 @strcmp(ptr noundef %70, ptr noundef @.str.164) #12
  %72 = icmp ne i32 %71, 0
  %73 = xor i1 %72, true
  br label %74

74:                                               ; preds = %67, %62
  %75 = phi i1 [ false, %62 ], [ %73, %67 ]
  %76 = zext i1 %75 to i32
  store i32 %76, ptr %8, align 4, !tbaa !11
  %77 = load ptr, ptr %5, align 8, !tbaa !94
  %78 = getelementptr inbounds nuw %struct.hwloc_calc_level, ptr %77, i32 0, i32 7
  %79 = load i32, ptr %78, align 4, !tbaa !99
  %80 = load i32, ptr %8, align 4, !tbaa !11
  %81 = icmp ne i32 %79, %80
  br i1 %81, label %82, label %83

82:                                               ; preds = %74
  store i32 1, ptr %3, align 4
  store i32 1, ptr %7, align 4
  br label %84

83:                                               ; preds = %74
  store i32 0, ptr %7, align 4
  br label %84

84:                                               ; preds = %83, %82
  call void @llvm.lifetime.end.p0(i64 4, ptr %8) #11
  %85 = load i32, ptr %7, align 4
  switch i32 %85, label %158 [
    i32 0, label %86
    i32 1, label %156
  ]

86:                                               ; preds = %84
  br label %87

87:                                               ; preds = %86, %57
  br label %155

88:                                               ; preds = %30
  %89 = load ptr, ptr %5, align 8, !tbaa !94
  %90 = getelementptr inbounds nuw %struct.hwloc_calc_level, ptr %89, i32 0, i32 1
  %91 = load i32, ptr %90, align 4, !tbaa !82
  %92 = icmp eq i32 %91, 17
  br i1 %92, label %93, label %128

93:                                               ; preds = %88
  %94 = load ptr, ptr %5, align 8, !tbaa !94
  %95 = getelementptr inbounds nuw %struct.hwloc_calc_level, ptr %94, i32 0, i32 5
  %96 = load i32, ptr %95, align 4, !tbaa !97
  %97 = icmp ne i32 %96, -1
  br i1 %97, label %98, label %110

98:                                               ; preds = %93
  %99 = load ptr, ptr %4, align 8, !tbaa !40
  %100 = getelementptr inbounds nuw %struct.hwloc_obj, ptr %99, i32 0, i32 5
  %101 = load ptr, ptr %100, align 8, !tbaa !107
  %102 = getelementptr inbounds nuw %struct.hwloc_pcidev_attr_s, ptr %101, i32 0, i32 6
  %103 = load i16, ptr %102, align 2, !tbaa !23
  %104 = zext i16 %103 to i32
  %105 = load ptr, ptr %5, align 8, !tbaa !94
  %106 = getelementptr inbounds nuw %struct.hwloc_calc_level, ptr %105, i32 0, i32 5
  %107 = load i32, ptr %106, align 4, !tbaa !97
  %108 = icmp ne i32 %104, %107
  br i1 %108, label %109, label %110

109:                                              ; preds = %98
  store i32 1, ptr %3, align 4
  br label %156

110:                                              ; preds = %98, %93
  %111 = load ptr, ptr %5, align 8, !tbaa !94
  %112 = getelementptr inbounds nuw %struct.hwloc_calc_level, ptr %111, i32 0, i32 6
  %113 = load i32, ptr %112, align 8, !tbaa !98
  %114 = icmp ne i32 %113, -1
  br i1 %114, label %115, label %127

115:                                              ; preds = %110
  %116 = load ptr, ptr %4, align 8, !tbaa !40
  %117 = getelementptr inbounds nuw %struct.hwloc_obj, ptr %116, i32 0, i32 5
  %118 = load ptr, ptr %117, align 8, !tbaa !107
  %119 = getelementptr inbounds nuw %struct.hwloc_pcidev_attr_s, ptr %118, i32 0, i32 7
  %120 = load i16, ptr %119, align 4, !tbaa !23
  %121 = zext i16 %120 to i32
  %122 = load ptr, ptr %5, align 8, !tbaa !94
  %123 = getelementptr inbounds nuw %struct.hwloc_calc_level, ptr %122, i32 0, i32 6
  %124 = load i32, ptr %123, align 8, !tbaa !98
  %125 = icmp ne i32 %121, %124
  br i1 %125, label %126, label %127

126:                                              ; preds = %115
  store i32 1, ptr %3, align 4
  br label %156

127:                                              ; preds = %115, %110
  br label %154

128:                                              ; preds = %88
  %129 = load ptr, ptr %5, align 8, !tbaa !94
  %130 = getelementptr inbounds nuw %struct.hwloc_calc_level, ptr %129, i32 0, i32 1
  %131 = load i32, ptr %130, align 4, !tbaa !82
  %132 = icmp eq i32 %131, 18
  br i1 %132, label %133, label %153

133:                                              ; preds = %128
  %134 = load ptr, ptr %5, align 8, !tbaa !94
  %135 = getelementptr inbounds nuw %struct.hwloc_calc_level, ptr %134, i32 0, i32 2
  %136 = getelementptr inbounds nuw %struct.hwloc_osdev_attr_s, ptr %135, i32 0, i32 0
  %137 = load i64, ptr %136, align 8, !tbaa !23
  %138 = icmp ne i64 %137, 0
  br i1 %138, label %139, label %152

139:                                              ; preds = %133
  %140 = load ptr, ptr %4, align 8, !tbaa !40
  %141 = getelementptr inbounds nuw %struct.hwloc_obj, ptr %140, i32 0, i32 5
  %142 = load ptr, ptr %141, align 8, !tbaa !107
  %143 = getelementptr inbounds nuw %struct.hwloc_osdev_attr_s, ptr %142, i32 0, i32 0
  %144 = load i64, ptr %143, align 8, !tbaa !23
  %145 = load ptr, ptr %5, align 8, !tbaa !94
  %146 = getelementptr inbounds nuw %struct.hwloc_calc_level, ptr %145, i32 0, i32 2
  %147 = getelementptr inbounds nuw %struct.hwloc_osdev_attr_s, ptr %146, i32 0, i32 0
  %148 = load i64, ptr %147, align 8, !tbaa !23
  %149 = and i64 %144, %148
  %150 = icmp ne i64 %149, 0
  br i1 %150, label %152, label %151

151:                                              ; preds = %139
  store i32 1, ptr %3, align 4
  br label %156

152:                                              ; preds = %139, %133
  br label %153

153:                                              ; preds = %152, %128
  br label %154

154:                                              ; preds = %153, %127
  br label %155

155:                                              ; preds = %154, %87
  store i32 0, ptr %3, align 4
  br label %156

156:                                              ; preds = %155, %151, %126, %109, %84, %54, %28
  %157 = load i32, ptr %3, align 4
  ret i32 %157

158:                                              ; preds = %84, %54
  unreachable
}