; Function Attrs: inlinehint nofree nounwind uwtable
define internal fastcc range(i32 0, 2) i32 @hwloc_calc_check_object_filtered(ptr noundef readonly captures(none) %0, ptr noundef nonnull readonly captures(none) %1) unnamed_addr #19 {
  %3 = getelementptr inbounds nuw i8, ptr %1, i64 56
  %4 = load i8, ptr %3, align 8, !tbaa !11
  %.not = icmp eq i8 %4, 0
  br i1 %.not, label %10, label %5

5:                                                ; preds = %2
  %6 = getelementptr inbounds nuw i8, ptr %0, i64 8
  %7 = load ptr, ptr %6, align 8, !tbaa !94
  %.not38 = icmp eq ptr %7, null
  br i1 %.not38, label %.thread, label %8

8:                                                ; preds = %5
  %9 = tail call i32 @strcasecmp(ptr noundef nonnull %3, ptr noundef nonnull %7) #26
  %.not39 = icmp eq i32 %9, 0
  br i1 %.not39, label %10, label %.thread

10:                                               ; preds = %8, %2
  %11 = getelementptr inbounds nuw i8, ptr %1, i64 4
  %12 = load i32, ptr %11, align 4, !tbaa !83
  switch i32 %12, label %70 [
    i32 14, label %13
    i32 17, label %44
    i32 18, label %62
  ]

13:                                               ; preds = %10
  %14 = getelementptr inbounds nuw i8, ptr %1, i64 88
  %15 = load i32, ptr %14, align 8, !tbaa !84
  %16 = icmp sgt i32 %15, -1
  br i1 %16, label %17, label %32

17:                                               ; preds = %13
  %18 = getelementptr inbounds nuw i8, ptr %0, i64 224
  %19 = load i32, ptr %18, align 8, !tbaa !95
  %.not.i.i = icmp eq i32 %19, 0
  br i1 %.not.i.i, label %.thread, label %.lr.ph.i.i

.lr.ph.i.i:                                       ; preds = %17
  %20 = getelementptr inbounds nuw i8, ptr %0, i64 216
  %21 = load ptr, ptr %20, align 8, !tbaa !96
  %wide.trip.count.i.i = zext i32 %19 to i64
  br label %23

22:                                               ; preds = %23
  %indvars.iv.next.i.i = add nuw nsw i64 %indvars.iv.i.i, 1
  %exitcond.not.i.i = icmp eq i64 %indvars.iv.next.i.i, %wide.trip.count.i.i
  br i1 %exitcond.not.i.i, label %.thread, label %23, !llvm.loop !97

23:                                               ; preds = %22, %.lr.ph.i.i
  %indvars.iv.i.i = phi i64 [ 0, %.lr.ph.i.i ], [ %indvars.iv.next.i.i, %22 ]
  %24 = getelementptr inbounds nuw %struct.hwloc_info_s, ptr %21, i64 %indvars.iv.i.i
  %25 = load ptr, ptr %24, align 8, !tbaa !98
  %26 = tail call i32 @strcmp(ptr noundef nonnull dereferenceable(1) %25, ptr noundef nonnull dereferenceable(11) @.str.181) #26
  %.not.not.i.i = icmp eq i32 %26, 0
  br i1 %.not.not.i.i, label %hwloc_obj_get_info_by_name.exit, label %22

hwloc_obj_get_info_by_name.exit:                  ; preds = %23
  %27 = getelementptr inbounds nuw i8, ptr %24, i64 8
  %28 = load ptr, ptr %27, align 8, !tbaa !100
  %.not46 = icmp eq ptr %28, null
  br i1 %.not46, label %.thread, label %29

29:                                               ; preds = %hwloc_obj_get_info_by_name.exit
  %30 = tail call i64 @strtol(ptr noundef nonnull captures(none) %28, ptr noundef null, i32 noundef 10) #25
  %31 = trunc i64 %30 to i32
  %.not47 = icmp eq i32 %15, %31
  br i1 %.not47, label %32, label %.thread

32:                                               ; preds = %29, %13
  %33 = getelementptr inbounds nuw i8, ptr %1, i64 100
  %34 = load i32, ptr %33, align 4, !tbaa !82
  %35 = icmp sgt i32 %34, -1
  br i1 %35, label %36, label %70

36:                                               ; preds = %32
  %37 = getelementptr inbounds nuw i8, ptr %0, i64 8
  %38 = load ptr, ptr %37, align 8, !tbaa !94
  %.not48 = icmp eq ptr %38, null
  br i1 %.not48, label %42, label %39

39:                                               ; preds = %36
  %40 = tail call i32 @strcmp(ptr noundef nonnull dereferenceable(1) %38, ptr noundef nonnull dereferenceable(7) @.str.164) #26
  %.not49 = icmp eq i32 %40, 0
  %41 = zext i1 %.not49 to i32
  br label %42

42:                                               ; preds = %39, %36
  %43 = phi i32 [ 0, %36 ], [ %41, %39 ]
  %.not50.not = icmp eq i32 %34, %43
  br i1 %.not50.not, label %70, label %.thread

44:                                               ; preds = %10
  %45 = getelementptr inbounds nuw i8, ptr %1, i64 92
  %46 = load i32, ptr %45, align 4, !tbaa !85
  %.not42 = icmp eq i32 %46, -1
  br i1 %.not42, label %53, label %47

47:                                               ; preds = %44
  %48 = getelementptr inbounds nuw i8, ptr %0, i64 40
  %49 = load ptr, ptr %48, align 8, !tbaa !54
  %50 = getelementptr inbounds nuw i8, ptr %49, i64 10
  %51 = load i16, ptr %50, align 2, !tbaa !11
  %52 = zext i16 %51 to i32
  %.not43 = icmp eq i32 %46, %52
  br i1 %.not43, label %53, label %.thread

53:                                               ; preds = %47, %44
  %54 = getelementptr inbounds nuw i8, ptr %1, i64 96
  %55 = load i32, ptr %54, align 8, !tbaa !86
  %.not44 = icmp eq i32 %55, -1
  br i1 %.not44, label %70, label %56

56:                                               ; preds = %53
  %57 = getelementptr inbounds nuw i8, ptr %0, i64 40
  %58 = load ptr, ptr %57, align 8, !tbaa !54
  %59 = getelementptr inbounds nuw i8, ptr %58, i64 12
  %60 = load i16, ptr %59, align 4, !tbaa !11
  %61 = zext i16 %60 to i32
  %.not45 = icmp eq i32 %55, %61
  br i1 %.not45, label %70, label %.thread

62:                                               ; preds = %10
  %63 = getelementptr inbounds nuw i8, ptr %1, i64 8
  %64 = load i64, ptr %63, align 8, !tbaa !11
  %.not40 = icmp eq i64 %64, 0
  br i1 %.not40, label %70, label %65

65:                                               ; preds = %62
  %66 = getelementptr inbounds nuw i8, ptr %0, i64 40
  %67 = load ptr, ptr %66, align 8, !tbaa !54
  %68 = load i64, ptr %67, align 8, !tbaa !11
  %69 = and i64 %68, %64
  %.not41 = icmp eq i64 %69, 0
  br i1 %.not41, label %.thread, label %70

70:                                               ; preds = %42, %10, %56, %53, %62, %65, %32
  br label %.thread

.thread:                                          ; preds = %22, %17, %29, %hwloc_obj_get_info_by_name.exit, %42, %65, %56, %47, %5, %8, %70
  %.0 = phi i32 [ 1, %42 ], [ 0, %70 ], [ 1, %8 ], [ 1, %5 ], [ 1, %47 ], [ 1, %56 ], [ 1, %65 ], [ 1, %hwloc_obj_get_info_by_name.exit ], [ 1, %29 ], [ 1, %17 ], [ 1, %22 ]
  ret i32 %.0
}